; Function Attrs: nofree nounwind uwtable
define void @Abc_NtkPartitionPrint(ptr noundef readonly captures(none) %0, ptr noundef readonly captures(none) %1, ptr noundef readonly captures(none) %2) local_unnamed_addr #8 {
  %4 = getelementptr i8, ptr %2, i64 8
  %5 = getelementptr i8, ptr %2, i64 4
  %.val1622 = load i32, ptr %5, align 4
  %6 = icmp sgt i32 %.val1622, 0
  br i1 %6, label %.lr.ph, label %.critedge

.lr.ph:                                           ; preds = %3
  %7 = getelementptr i8, ptr %1, i64 8
  %8 = getelementptr i8, ptr %1, i64 4
  br label %12

9:                                                ; preds = %12
  %indvars.iv.next = add nuw nsw i64 %indvars.iv, 1
  %.val16 = load i32, ptr %5, align 4
  %10 = sext i32 %.val16 to i64
  %11 = icmp slt i64 %indvars.iv.next, %10
  br i1 %11, label %12, label %.critedge, !llvm.loop !29

12:                                               ; preds = %.lr.ph, %9
  %indvars.iv = phi i64 [ 0, %.lr.ph ], [ %indvars.iv.next, %9 ]
  %.024 = phi i32 [ 0, %.lr.ph ], [ %21, %9 ]
  %.val18 = load ptr, ptr %4, align 8
  %13 = getelementptr inbounds nuw ptr, ptr %.val18, i64 %indvars.iv
  %14 = load ptr, ptr %13, align 8
  %.val17 = load ptr, ptr %7, align 8
  %15 = getelementptr inbounds nuw ptr, ptr %.val17, i64 %indvars.iv
  %16 = load ptr, ptr %15, align 8
  %17 = getelementptr i8, ptr %16, i64 4
  %.val21 = load i32, ptr %17, align 4
  %18 = getelementptr i8, ptr %14, i64 4
  %.val20 = load i32, ptr %18, align 4
  %19 = trunc nuw nsw i64 %indvars.iv to i32
  %20 = tail call i32 (ptr, ...) @printf(ptr noundef nonnull dereferenceable(1) @.str, i32 noundef %19, i32 noundef %.val20, i32 noundef %.val21)
  %21 = add nsw i32 %.val21, %.024
  %.val = load i32, ptr %8, align 4
  %22 = add nsw i32 %.val, -1
  %23 = zext i32 %22 to i64
  %24 = icmp eq i64 %indvars.iv, %23
  br i1 %24, label %.critedge, label %9

.critedge:                                        ; preds = %12, %9, %3
  %.1 = phi i32 [ 0, %3 ], [ %21, %9 ], [ %21, %12 ]
  %25 = getelementptr i8, ptr %0, i64 64
  %.val19 = load ptr, ptr %25, align 8
  %26 = getelementptr i8, ptr %.val19, i64 4
  %.val19.val = load i32, ptr %26, align 4
  %27 = tail call i32 (ptr, ...) @printf(ptr noundef nonnull dereferenceable(1) @.str.1, i32 noundef %.1, i32 noundef %.val19.val)
  ret void
}